; Function Attrs: nounwind uwtable
define range(i32 0, 2) i32 @cuddP(ptr noundef %0, ptr noundef %1) local_unnamed_addr #0 {
  %3 = tail call ptr @st__init_table(ptr noundef nonnull @st__ptrcmp, ptr noundef nonnull @st__ptrhash) #23
  %4 = icmp eq ptr %3, null
  br i1 %4, label %10, label %5

5:                                                ; preds = %2
  %6 = tail call fastcc i32 @dp2(ptr noundef %0, ptr noundef %1, ptr noundef %3)
  tail call void @st__free_table(ptr noundef nonnull %3) #23
  %7 = getelementptr inbounds nuw i8, ptr %0, i64 608
  %8 = load ptr, ptr %7, align 8
  %9 = tail call i32 @fputc(i32 noundef 10, ptr noundef %8)
  br label %10

10:                                               ; preds = %2, %5
  %.0 = phi i32 [ %6, %5 ], [ 0, %2 ]
  ret i32 %.0
}